target datalayout = "e-m:e-p270:32:32-p271:32:32-p272:64:64-i64:64-i128:128-f80:128-n8:16:32:64-S128"
target triple = "x86_64-pc-linux-gnu"

%struct.archive_read_disk = type { %struct.archive, ptr, i8, i8, ptr, ptr, ptr, ptr, i32, ptr, ptr, ptr, ptr, ptr, ptr, ptr, ptr, ptr, ptr, ptr }
%struct.archive = type { i32, i32, ptr, i32, ptr, i32, i32, ptr, %struct.archive_string, ptr, i32, i32, ptr, ptr, i64, i64, i64, i8, i64 }
%struct.archive_string = type { ptr, i64, i64 }
%struct.tree = type { ptr, ptr, ptr, ptr, i32, i32, i32, %struct.archive_string, ptr, i64, i32, i32, i32, i32, i32, %struct.stat, %struct.stat, i32, i32, %struct.restore_time, ptr, ptr, i32, i32, i8, i8, ptr, ptr, i32, i32, i32, i32, i32, i32, i64, i64, ptr, i64 }
%struct.stat = type { i64, i64, i64, i32, i32, i32, i32, i64, i64, i64, i64, %struct.timespec, %struct.timespec, %struct.timespec, [3 x i64] }
%struct.timespec = type { i64, i64 }
%struct.restore_time = type { ptr, i64, i64, i64, i64, i32, i32 }

@.str.11 = private unnamed_addr constant [30 x i8] c"archive_read_disk_can_descend\00", align 1

; Function Attrs: nounwind uwtable
define dso_local i32 @archive_read_disk_can_descend(ptr noundef %0) #0 {
  %2 = alloca i32, align 4
  %3 = alloca ptr, align 8
  %4 = alloca ptr, align 8
  %5 = alloca ptr, align 8
  %6 = alloca i32, align 4
  store ptr %0, ptr %3, align 8
  %7 = load ptr, ptr %3, align 8
  store ptr %7, ptr %4, align 8
  %8 = load ptr, ptr %4, align 8
  %9 = getelementptr inbounds %struct.archive_read_disk, ptr %8, i32 0, i32 4
  %10 = load ptr, ptr %9, align 8
  store ptr %10, ptr %5, align 8
  br label %11

11:                                               ; preds = %1
  %12 = load ptr, ptr %3, align 8
  %13 = call i32 @__archive_check_magic(ptr noundef %12, i32 noundef 195932357, i32 noundef 6, ptr noundef @.str.11)
  store i32 %13, ptr %6, align 4
  %14 = load i32, ptr %6, align 4
  %15 = icmp eq i32 %14, -30
  br i1 %15, label %16, label %17

16:                                               ; preds = %11
  store i32 -30, ptr %2, align 4
  br label %31

17:                                               ; preds = %11
  br label %18

18:                                               ; preds = %17
  %19 = load ptr, ptr %5, align 8
  %20 = getelementptr inbounds %struct.tree, ptr %19, i32 0, i32 5
  %21 = load i32, ptr %20, align 4
  %22 = icmp eq i32 %21, 1
  br i1 %22, label %23, label %28

23:                                               ; preds = %18
  %24 = load ptr, ptr %5, align 8
  %25 = getelementptr inbounds %struct.tree, ptr %24, i32 0, i32 17
  %26 = load i32, ptr %25, align 8
  %27 = icmp ne i32 %26, 0
  br label %28

28:                                               ; preds = %23, %18
  %29 = phi i1 [ false, %18 ], [ %27, %23 ]
  %30 = zext i1 %29 to i32
  store i32 %30, ptr %2, align 4
  br label %31

31:                                               ; preds = %28, %16
  %32 = load i32, ptr %2, align 4
  ret i32 %32
}