; Function Attrs: nounwind uwtable
define dso_local range(i32 -30, 2) i32 @archive_read_disk_can_descend(ptr noundef %0) local_unnamed_addr #0 {
  %2 = getelementptr inbounds nuw i8, ptr %0, i64 160
  %3 = load ptr, ptr %2, align 8
  %4 = tail call i32 @__archive_check_magic(ptr noundef %0, i32 noundef 195932357, i32 noundef 6, ptr noundef nonnull @.str.11) #17
  %5 = icmp eq i32 %4, -30
  br i1 %5, label %15, label %6

6:                                                ; preds = %1
  %7 = getelementptr inbounds nuw i8, ptr %3, i64 36
  %8 = load i32, ptr %7, align 4
  %9 = icmp eq i32 %8, 1
  br i1 %9, label %10, label %15

10:                                               ; preds = %6
  %11 = getelementptr inbounds nuw i8, ptr %3, i64 400
  %12 = load i32, ptr %11, align 8
  %13 = icmp ne i32 %12, 0
  %14 = zext i1 %13 to i32
  br label %15

15:                                               ; preds = %6, %10, %1
  %.0 = phi i32 [ -30, %1 ], [ 0, %6 ], [ %14, %10 ]
  ret i32 %.0
}